target datalayout = "e-m:e-p270:32:32-p271:32:32-p272:64:64-i64:64-i128:128-f80:128-n8:16:32:64-S128"
target triple = "x86_64-pc-linux-gnu"

%struct._YR_ARENA_PAGE = type { ptr, ptr, i64, i64, ptr, ptr, ptr, ptr }
%struct._YR_ARENA = type { i32, ptr, ptr }
%struct.__va_list_tag = type { i32, i32, ptr, ptr }

; Function Attrs: nounwind uwtable
define i32 @yr_arena_allocate_memory(ptr noundef %0, i64 noundef %1, ptr noundef %2) #0 {
  %4 = alloca i32, align 4
  %5 = alloca ptr, align 8
  %6 = alloca i64, align 8
  %7 = alloca ptr, align 8
  %8 = alloca i32, align 4
  store ptr %0, ptr %5, align 8
  store i64 %1, ptr %6, align 8
  store ptr %2, ptr %7, align 8
  %9 = load ptr, ptr %5, align 8
  %10 = load i64, ptr %6, align 8
  %11 = call i32 @yr_arena_reserve_memory(ptr noundef %9, i64 noundef %10)
  store i32 %11, ptr %8, align 4
  %12 = load i32, ptr %8, align 4
  %13 = icmp ne i32 %12, 0
  br i1 %13, label %14, label %16

14:                                               ; preds = %3
  %15 = load i32, ptr %8, align 4
  store i32 %15, ptr %4, align 4
  br label %36

16:                                               ; preds = %3
  %17 = load ptr, ptr %5, align 8
  %18 = getelementptr inbounds %struct._YR_ARENA, ptr %17, i32 0, i32 2
  %19 = load ptr, ptr %18, align 8
  %20 = getelementptr inbounds %struct._YR_ARENA_PAGE, ptr %19, i32 0, i32 1
  %21 = load ptr, ptr %20, align 8
  %22 = load ptr, ptr %5, align 8
  %23 = getelementptr inbounds %struct._YR_ARENA, ptr %22, i32 0, i32 2
  %24 = load ptr, ptr %23, align 8
  %25 = getelementptr inbounds %struct._YR_ARENA_PAGE, ptr %24, i32 0, i32 3
  %26 = load i64, ptr %25, align 8
  %27 = getelementptr inbounds i8, ptr %21, i64 %26
  %28 = load ptr, ptr %7, align 8
  store ptr %27, ptr %28, align 8
  %29 = load i64, ptr %6, align 8
  %30 = load ptr, ptr %5, align 8
  %31 = getelementptr inbounds %struct._YR_ARENA, ptr %30, i32 0, i32 2
  %32 = load ptr, ptr %31, align 8
  %33 = getelementptr inbounds %struct._YR_ARENA_PAGE, ptr %32, i32 0, i32 3
  %34 = load i64, ptr %33, align 8
  %35 = add i64 %34, %29
  store i64 %35, ptr %33, align 8
  store i32 0, ptr %4, align 4
  br label %36

36:                                               ; preds = %16, %14
  %37 = load i32, ptr %4, align 4
  ret i32 %37
}

; Function Attrs: nounwind uwtable
define i32 @yr_arena_allocate_struct(ptr noundef %0, i64 noundef %1, ptr noundef %2, ...) #0 {
  %4 = alloca ptr, align 8
  %5 = alloca i64, align 8
  %6 = alloca ptr, align 8
  %7 = alloca i32, align 4
  %8 = alloca [1 x %struct.__va_list_tag], align 16
  store ptr %0, ptr %4, align 8
  store i64 %1, ptr %5, align 8
  store ptr %2, ptr %6, align 8
  %9 = getelementptr inbounds [1 x %struct.__va_list_tag], ptr %8, i64 0, i64 0
  call void @llvm.va_start.p0(ptr %9)
  %10 = load ptr, ptr %4, align 8
  %11 = load i64, ptr %5, align 8
  %12 = load ptr, ptr %6, align 8
  %13 = call i32 @yr_arena_allocate_memory(ptr noundef %10, i64 noundef %11, ptr noundef %12)
  store i32 %13, ptr %7, align 4
  %14 = load i32, ptr %7, align 4
  %15 = icmp eq i32 %14, 0
  br i1 %15, label %16, label %22

16:                                               ; preds = %3
  %17 = load ptr, ptr %4, align 8
  %18 = load ptr, ptr %6, align 8
  %19 = load ptr, ptr %18, align 8
  %20 = getelementptr inbounds [1 x %struct.__va_list_tag], ptr %8, i64 0, i64 0
  %21 = call i32 @_yr_arena_make_relocatable(ptr noundef %17, ptr noundef %19, ptr noundef %20)
  store i32 %21, ptr %7, align 4
  br label %22

22:                                               ; preds = %16, %3
  %23 = getelementptr inbounds [1 x %struct.__va_list_tag], ptr %8, i64 0, i64 0
  call void @llvm.va_end.p0(ptr %23)
  %24 = load ptr, ptr %6, align 8
  %25 = load ptr, ptr %24, align 8
  %26 = load i64, ptr %5, align 8
  call void @llvm.memset.p0.i64(ptr align 1 %25, i8 0, i64 %26, i1 false)
  %27 = load i32, ptr %7, align 4
  ret i32 %27
}