; Function Attrs: nounwind uwtable
define noundef i32 @yr_arena_allocate_struct(ptr nocapture noundef %0, i64 noundef %1, ptr nocapture noundef %2, ...) local_unnamed_addr #0 {
  %4 = alloca [1 x %struct.__va_list_tag], align 16
  call void @llvm.va_start.p0(ptr nonnull %4)
  %5 = call i32 @yr_arena_reserve_memory(ptr noundef %0, i64 noundef %1), !range !4
  %.not.i = icmp eq i32 %5, 0
  br i1 %.not.i, label %6, label %yr_arena_allocate_memory.exit

6:                                                ; preds = %3
  %7 = getelementptr inbounds i8, ptr %0, i64 16
  %8 = load ptr, ptr %7, align 8
  %9 = getelementptr inbounds i8, ptr %8, i64 8
  %10 = load ptr, ptr %9, align 8
  %11 = getelementptr inbounds i8, ptr %8, i64 24
  %12 = load i64, ptr %11, align 8
  %13 = getelementptr inbounds i8, ptr %10, i64 %12
  store ptr %13, ptr %2, align 8
  %14 = load ptr, ptr %7, align 8
  %15 = getelementptr inbounds i8, ptr %14, i64 24
  %16 = load i64, ptr %15, align 8
  %17 = add i64 %16, %1
  store i64 %17, ptr %15, align 8
  %18 = load ptr, ptr %2, align 8
  %19 = call i32 @_yr_arena_make_relocatable(ptr noundef %0, ptr noundef %18, ptr noundef nonnull %4), !range !4
  br label %yr_arena_allocate_memory.exit

yr_arena_allocate_memory.exit:                    ; preds = %3, %6
  %.0 = phi i32 [ %19, %6 ], [ 1, %3 ]
  call void @llvm.va_end.p0(ptr nonnull %4)
  %20 = load ptr, ptr %2, align 8
  call void @llvm.memset.p0.i64(ptr align 1 %20, i8 0, i64 %1, i1 false)
  ret i32 %.0
}